target datalayout = "e-m:e-p270:32:32-p271:32:32-p272:64:64-i64:64-i128:128-f80:128-n8:16:32:64-S128"
target triple = "x86_64-pc-linux-gnu"

; Function Attrs: nounwind uwtable
define internal i32 @_unpack_buffer(ptr noundef %0, i16 noundef zeroext %1, ptr noundef %2) #0 {
  %4 = alloca i32, align 4
  %5 = alloca ptr, align 8
  %6 = alloca i16, align 2
  %7 = alloca ptr, align 8
  %8 = alloca ptr, align 8
  %9 = alloca ptr, align 8
  %10 = alloca i32, align 4
  %11 = alloca i32, align 4
  store ptr %0, ptr %5, align 8
  store i16 %1, ptr %6, align 2
  store ptr %2, ptr %7, align 8
  call void @llvm.lifetime.start.p0(i64 8, ptr %8) #5
  store ptr null, ptr %8, align 8
  call void @llvm.lifetime.start.p0(i64 8, ptr %9) #5
  store ptr null, ptr %9, align 8
  call void @llvm.lifetime.start.p0(i64 4, ptr %10) #5
  br label %12

12:                                               ; preds = %3
  %13 = load ptr, ptr %7, align 8
  %14 = call i32 @unpackmem_xmalloc(ptr noundef %9, ptr noundef %10, ptr noundef %13)
  %15 = icmp ne i32 %14, 0
  br i1 %15, label %16, label %17

16:                                               ; preds = %12
  br label %28

17:                                               ; preds = %12
  br label %18

18:                                               ; preds = %17
  br label %19

19:                                               ; preds = %18
  %20 = load ptr, ptr %9, align 8
  %21 = load i32, ptr %10, align 4
  %22 = call ptr @create_buf(ptr noundef %20, i32 noundef %21)
  store ptr %22, ptr %8, align 8
  %23 = icmp ne ptr %22, null
  br i1 %23, label %25, label %24

24:                                               ; preds = %19
  br label %28

25:                                               ; preds = %19
  %26 = load ptr, ptr %8, align 8
  %27 = load ptr, ptr %5, align 8
  store ptr %26, ptr %27, align 8
  store i32 0, ptr %4, align 4
  store i32 1, ptr %11, align 4
  br label %31

28:                                               ; preds = %24, %16
  call void @slurm_xfree(ptr noundef %9)
  %29 = load ptr, ptr %8, align 8
  call void @slurmdbd_free_buffer(ptr noundef %29)
  %30 = load ptr, ptr %5, align 8
  store ptr null, ptr %30, align 8
  store i32 -1, ptr %4, align 4
  store i32 1, ptr %11, align 4
  br label %31

31:                                               ; preds = %28, %25
  call void @llvm.lifetime.end.p0(i64 4, ptr %10) #5
  call void @llvm.lifetime.end.p0(i64 8, ptr %9) #5
  call void @llvm.lifetime.end.p0(i64 8, ptr %8) #5
  %32 = load i32, ptr %4, align 4
  ret i32 %32
}