; Function Attrs: nounwind uwtable
define internal range(i32 -1, 1) i32 @_unpack_buffer(ptr noundef writeonly captures(none) initializes((0, 8)) %0, i16 zeroext %1, ptr noundef %2) #0 {
  %4 = alloca ptr, align 8
  %5 = alloca i32, align 4
  call void @llvm.lifetime.start.p0(i64 8, ptr nonnull %4) #5
  store ptr null, ptr %4, align 8
  call void @llvm.lifetime.start.p0(i64 4, ptr nonnull %5) #5
  %6 = call i32 @unpackmem_xmalloc(ptr noundef nonnull %4, ptr noundef nonnull %5, ptr noundef %2) #5
  %.not = icmp eq i32 %6, 0
  br i1 %.not, label %7, label %11

7:                                                ; preds = %3
  %8 = load ptr, ptr %4, align 8
  %9 = load i32, ptr %5, align 4
  %10 = call ptr @create_buf(ptr noundef %8, i32 noundef %9) #5
  %.not7 = icmp eq ptr %10, null
  br i1 %.not7, label %11, label %12

11:                                               ; preds = %7, %3
  call void @slurm_xfree(ptr noundef nonnull %4) #5
  call void @slurmdbd_free_buffer(ptr noundef null) #5
  br label %12

12:                                               ; preds = %7, %11
  %storemerge = phi ptr [ null, %11 ], [ %10, %7 ]
  %.05 = phi i32 [ -1, %11 ], [ 0, %7 ]
  store ptr %storemerge, ptr %0, align 8
  call void @llvm.lifetime.end.p0(i64 4, ptr nonnull %5) #5
  call void @llvm.lifetime.end.p0(i64 8, ptr nonnull %4) #5
  ret i32 %.05
}